Certificate:
    Data:
        Version: 3 (0x2)
        Serial Number: 1 (0x1)
        Signature Algorithm: sha256WithRSAEncryption
        Issuer: O=Sample, CN=Sample CA
        Validity
            Not Before: Feb 24 03:07:05 2023 GMT
            Not After : Feb 24 03:07:05 2024 GMT
        Subject: O=Sample
        Subject Public Key Info:
            Public Key Algorithm: rsaEncryption
                RSA Public-Key: (3072 bit)
                Modulus:
                    00:e1:b3:c3:24:5c:c2:bc:5f:d2:c5:41:e4:7f:bd:
                    4e:83:71:dc:ca:e9:c5:63:c4:37:9f:de:9c:d8:6f:
                    9e:85:0d:67:82:39:e3:83:4b:99:96:c3:9f:d8:73:
                    df:c5:56:82:a4:40:ab:c5:ea:d8:6e:c8:db:f1:49:
                    d0:c8:1f:83:51:07:8f:44:43:89:c0:6a:b8:a8:9f:
                    63:4d:b6:47:80:ba:25:67:89:22:3f:ee:de:40:03:
                    a0:77:61:1e:0d:2f:de:3a:c6:e5:f1:e6:c6:f4:a0:
                    1f:aa:c3:2d:c3:1b:5d:58:9d:f6:d4:c5:74:2c:60:
                    78:ed:bc:2c:9d:11:40:dc:be:c2:72:0d:a9:8e:53:
                    b8:1d:b9:c6:7e:a1:6d:3b:0b:c7:97:ca:b4:4b:52:
                    1b:7a:6a:ba:d9:73:09:bb:56:cc:2b:94:ba:0d:82:
                    8a:f3:c7:b6:ec:05:f4:3e:11:f1:ba:68:3a:02:a7:
                    89:26:c1:b9:cb:fc:47:e3:cf:31:52:e2:b9:3c:7e:
                    2c:8a:a5:1f:eb:34:bf:4b:ef:66:4d:13:04:c8:d1:
                    c9:98:cf:df:f8:97:33:51:2d:5b:2f:f0:05:bd:43:
                    b8:62:97:c9:4b:c4:8b:67:87:01:3c:d2:cb:5b:d1:
                    ad:55:81:8c:09:73:45:49:e6:d1:0b:1a:16:5b:cb:
                    56:61:e5:01:61:83:e2:00:6a:01:84:86:7e:a3:34:
                    78:2b:ef:f9:20:4f:2d:41:ca:a8:dc:4f:72:70:ef:
                    f9:19:3a:1e:90:a9:40:e2:6a:2a:3c:5a:ee:a6:dd:
                    d9:97:6e:9f:36:32:cd:96:0b:fe:a7:bb:27:d6:5a:
                    72:14:3e:27:52:6b:c3:d4:9f:66:04:46:4b:60:78:
                    d9:2d:8b:bd:b2:dc:c5:e2:12:31:e9:0d:4c:87:e3:
                    6d:7b:51:a7:dd:67:5d:cf:52:a4:e8:79:2b:e4:ce:
                    0d:4e:50:7a:30:33:f6:43:91:de:0c:53:a7:d3:c8:
                    29:c1:6a:10:81:3b:e3:10:c3:a1
                Exponent: 3 (0x3)
        X509v3 extensions:
            X509v3 Key Usage: critical
                Digital Signature, Key Encipherment
            X509v3 Extended Key Usage: 
                TLS Web Server Authentication, TLS Web Client Authentication
            X509v3 Subject Alternative Name: critical
                DNS:Sample, DNS:Sample, IP Address:127.0.0.1
    Signature Algorithm: sha256WithRSAEncryption
         15:82:8d:a5:fc:8a:6c:ce:e8:e3:76:9c:e7:7e:3e:4a:f2:98:
         67:95:5a:a9:dd:4f:e4:53:01:04:bc:26:9c:27:e4:f7:b2:7c:
         97:c5:88:00:a2:89:f7:75:80:69:18:43:ad:ff:4b:9f:b1:22:
         8f:6d:1d:36:e5:1b:2d:de:e2:7f:84:c2:7a:cb:82:4b:9e:eb:
         85:2e:09:55:b1:b1:37:bc:08:b3:05:44:17:ac:c4:7b:97:38:
         e7:e9:67:5f:73:89:1f:87:5e:4d:5c:db:c6:b6:15:cb:da:2f:
         ce:39:83:5b:a1:96:ec:b8:de:96:ba:f8:81:a8:7c:51:aa:35:
         b4:66:cb:05:e2:7a:d7:a1:e6:0d:04:ff:12:b5:f6:96:52:24:
         bf:e4:76:22:ec:06:c1:5d:7c:47:ba:26:ff:1c:d3:fd:a6:67:
         12:de:4d:a5:41:5e:77:f9:61:1d:20:d8:a7:7f:ad:26:74:4b:
         19:6d:b7:0b:cc:d0:ec:3c:5c:ad:86:66:85:63:fb:6b:39:28:
         36:4d:20:30:fb:19:3c:01:e1:81:a5:ad:29:f6:10:ea:d7:20:
         a0:16:82:98:81:a3:fe:88:93:cb:70:0e:4f:55:f5:b8:ac:2b:
         8a:94:ee:97:f5:38:01:5e:e0:eb:70:d3:8c:62:85:e2:8e:14:
         17:eb:38:ce:85:83:1d:88:9b:07:ec:d3:e3:c7:ae:1f:9f:a8:
         ca:2c:5e:d4:a8:4c:00:4a:16:0c:1a:9d:71:ef:ce:c3:8e:a7:
         96:9c:1b:d5:bf:3e:47:52:69:56:f9:7d:6a:78:65:f3:20:a1:
         a1:04:a2:63:bb:15:e2:ed:5d:3d:66:c3:8e:46:0e:a2:6c:09:
         e7:98:30:70:70:4a:08:e6:aa:bc:f6:74:d9:10:e8:99:09:3f:
         37:83:00:ee:47:b7:83:6a:c7:4b:77:91:2b:37:56:a4:22:11:
         56:df:f2:9b:f1:16:c6:01:02:e5:31:80:90:0a:45:c0:a2:f5:
         73:da:5d:77:5c:34
-----BEGIN CERTIFICATE-----
MIIEBDCCAmygAwIBAgIBATANBgkqhkiG9w0BAQsFADAlMQ8wDQYDVQQKDAZTYW1w
bGUxEjAQBgNVBAMMCVNhbXBsZSBDQTAeFw0yMzAyMjQwMzA3MDVaFw0yNDAyMjQw
MzA3MDVaMBExDzANBgNVBAoMBlNhbXBsZTCCAaAwDQYJKoZIhvcNAQEBBQADggGN
ADCCAYgCggGBAOGzwyRcwrxf0sVB5H+9ToNx3MrpxWPEN5/enNhvnoUNZ4I544NL
mZbDn9hz38VWgqRAq8Xq2G7I2/FJ0Mgfg1EHj0RDicBquKifY022R4C6JWeJIj/u
3kADoHdhHg0v3jrG5fHmxvSgH6rDLcMbXVid9tTFdCxgeO28LJ0RQNy+wnINqY5T
uB25xn6hbTsLx5fKtEtSG3pqutlzCbtWzCuUug2CivPHtuwF9D4R8bpoOgKniSbB
ucv8R+PPMVLiuTx+LIqlH+s0v0vvZk0TBMjRyZjP3/iXM1EtWy/wBb1DuGKXyUvE
i2eHATzSy1vRrVWBjAlzRUnm0QsaFlvLVmHlAWGD4gBqAYSGfqM0eCvv+SBPLUHK
qNxPcnDv+Rk6HpCpQOJqKjxa7qbd2ZdunzYyzZYL/qe7J9ZachQ+J1Jrw9SfZgRG
S2B42S2LvbLcxeISMekNTIfjbXtRp91nXc9SpOh5K+TODU5QejAz9kOR3gxTp9PI
KcFqEIE74xDDoQIBA6NVMFMwDgYDVR0PAQH/BAQDAgWgMB0GA1UdJQQWMBQGCCsG
AQUFBwMBBggrBgEFBQcDAjAiBgNVHREBAf8EGDAWggZTYW1wbGWCBlNhbXBsZYcE
fwAAATANBgkqhkiG9w0BAQsFAAOCAYEAFYKNpfyKbM7o43ac534+SvKYZ5Vaqd1P
5FMBBLwmnCfk97J8l8WIAKKJ93WAaRhDrf9Ln7Eij20dNuUbLd7if4TCesuCS57r
hS4JVbGxN7wIswVEF6zEe5c45+lnX3OJH4deTVzbxrYVy9ovzjmDW6GW7Ljelrr4
gah8Uao1tGbLBeJ616HmDQT/ErX2llIkv+R2IuwGwV18R7om/xzT/aZnEt5NpUFe
d/lhHSDYp3+tJnRLGW23C8zQ7DxcrYZmhWP7azkoNk0gMPsZPAHhgaWtKfYQ6tcg
oBaCmIGj/oiTy3AOT1X1uKwripTul/U4AV7g63DTjGKF4o4UF+s4zoWDHYibB+zT
48euH5+oyixe1KhMAEoWDBqdce/Ow46nlpwb1b8+R1JpVvl9anhl8yChoQSiY7sV
4u1dPWbDjkYOomwJ55gwcHBKCOaqvPZ02RDomQk/N4MA7ke3g2rHS3eRKzdWpCIR
Vt/ym/EWxgEC5TGAkApFwKL1c9pdd1w0
-----END CERTIFICATE-----
