Certificate:
    Data:
        Version: 3 (0x2)
        Serial Number: 3 (0x3)
        Signature Algorithm: sha256WithRSAEncryption
        Issuer: O=Sample, CN=Sample CA
        Validity
            Not Before: Feb 24 03:07:06 2023 GMT
            Not After : Feb 24 03:07:06 2024 GMT
        Subject: O=Sample, CN=<username_1>
        Subject Public Key Info:
            Public Key Algorithm: rsaEncryption
                RSA Public-Key: (3072 bit)
                Modulus:
                    00:f3:b0:d1:34:96:09:32:9d:96:ba:c3:fa:e8:30:
                    96:f4:ad:cf:65:8a:a4:46:53:5c:ff:42:09:df:6a:
                    18:d6:47:d8:0b:ac:88:cf:79:3d:ac:56:05:0b:e7:
                    c8:e2:b0:68:62:f5:8e:20:1a:4e:65:b1:5b:ad:9e:
                    12:01:a7:49:9b:1d:74:a0:67:14:9b:b3:85:34:0e:
                    04:2e:00:b6:8a:31:d5:96:82:b2:62:bf:54:97:a0:
                    cc:4e:7b:d8:21:6c:52:92:2d:df:fc:99:fe:6e:83:
                    e4:8b:97:63:ab:33:8d:03:35:7f:04:8d:a9:0b:01:
                    23:51:77:94:09:58:3f:8e:76:fd:db:95:b1:b3:94:
                    e1:5d:ed:bb:8f:09:2e:e6:93:11:fb:2c:be:60:f9:
                    2d:e7:12:b6:44:c7:18:1e:bf:4d:d6:86:4a:42:97:
                    dc:0a:b2:23:85:94:ed:9a:00:cd:25:b7:42:33:10:
                    19:ec:cf:fc:95:53:af:0c:db:56:42:8c:50:92:f3:
                    86:2b:bc:3f:b9:dc:ab:fb:7f:62:82:53:17:ef:12:
                    97:b1:38:0e:5b:b0:8c:fb:3b:b4:b3:a8:11:33:ce:
                    51:ed:39:f1:b6:13:0b:c2:4f:a4:e8:ba:9c:c6:c9:
                    f2:96:33:64:7e:63:75:57:bf:5f:14:d4:0f:1b:68:
                    92:ca:3d:ce:62:2f:3f:94:f1:9c:6b:04:8d:12:d2:
                    cb:3d:1f:4b:24:d7:bb:1c:fc:9a:a7:b3:59:f9:08:
                    c4:8c:79:ca:94:b9:a8:79:4f:a7:0a:4b:6b:aa:61:
                    25:ea:4d:0b:3a:1d:cf:eb:47:08:5c:db:ce:4b:9a:
                    75:a7:04:e8:b0:f5:b5:1b:33:5f:0e:81:d2:0f:81:
                    4a:b8:14:fb:ae:38:4e:80:21:78:2f:e4:fb:60:38:
                    2f:b4:f7:ad:a4:35:48:66:73:ac:6f:3e:61:93:b4:
                    d8:93:59:4b:df:d9:f1:72:e6:39:a2:9f:4f:02:e4:
                    60:f1:65:fa:1e:b1:5e:89:5a:eb
                Exponent: 3 (0x3)
        X509v3 extensions:
            X509v3 Key Usage: critical
                Digital Signature, Key Encipherment
            X509v3 Extended Key Usage: 
                TLS Web Client Authentication
            X509v3 Subject Alternative Name: 
                DNS:root
    Signature Algorithm: sha256WithRSAEncryption
         12:ad:9c:7c:b7:51:1f:02:0f:fc:c3:4c:56:f2:f9:0e:ae:c5:
         d1:c7:d4:97:26:c6:f6:d9:31:c1:40:14:fc:1a:17:7f:9a:6f:
         11:79:54:24:aa:ab:84:eb:26:de:7c:26:e9:ac:ce:bb:d4:fa:
         5f:15:96:25:41:46:ee:bd:bc:dd:29:a6:73:82:bd:67:77:e5:
         e3:31:d4:b2:a9:a9:fa:ef:e1:5e:c5:c4:61:00:e3:74:85:f3:
         c9:97:c2:45:50:b4:c3:96:fe:7e:b4:f9:16:3b:1b:6e:93:56:
         f7:fe:44:8f:9c:48:f1:a6:e5:1d:06:1d:ef:92:e2:15:8e:90:
         e8:f4:d1:53:f5:50:e0:9d:7b:b2:32:77:11:75:6a:d6:ab:37:
         7b:ae:e6:2c:b0:9a:95:7e:e7:cc:bb:ed:4a:b2:db:0c:68:20:
         23:90:9d:d6:87:5d:41:77:a2:c7:41:0b:b2:5f:78:a5:27:4b:
         c6:68:65:17:ae:e0:a6:c2:44:c3:16:9e:71:92:85:c9:dd:0d:
         90:09:e2:5c:54:59:46:6f:b0:41:9d:2c:d3:77:73:a3:3d:cf:
         cd:f3:7d:c6:53:da:c8:12:7d:7b:a0:6d:c7:bf:6a:0f:f1:48:
         53:b5:19:b2:fc:83:3d:ed:2d:a7:9f:3d:68:3f:08:9b:22:54:
         65:7b:4d:66:5f:66:17:07:ac:11:3e:28:ce:5f:f4:04:bc:1a:
         46:21:25:60:25:1e:fa:96:e2:3a:fc:6a:dd:7f:77:0f:23:fc:
         21:f6:ac:5e:32:41:e6:a3:c5:a3:f9:9b:03:db:49:d1:cd:62:
         1e:5d:ef:02:78:e8:19:4a:2f:94:52:a7:47:ea:8f:15:24:2d:
         bd:5a:1e:b7:eb:89:80:05:4c:1d:af:0a:8a:12:2e:8b:7d:92:
         a2:d8:0c:0a:1b:bb:b8:56:24:8f:ec:47:ab:3d:8c:b9:6e:3f:
         dd:97:80:35:82:ed:cd:1d:85:be:e7:b5:ef:ee:04:cf:6c:a7:
         df:81:84:3a:a4:47
-----BEGIN CERTIFICATE-----
MIID/jCCAmagAwIBAgIBAzANBgkqhkiG9w0BAQsFADAlMQ8wDQYDVQQKDAZTYW1w
bGUxEjAQBgNVBAMMCVNhbXBsZSBDQTAeFw0yMzAyMjQwMzA3MDZaFw0yNDAyMjQw
MzA3MDZaMCgxDzANBgNVBAoMBlNhbXBsZTEVMBMGA1UEAwwMPHVzZXJuYW1lXzE+
MIIBoDANBgkqhkiG9w0BAQEFAAOCAY0AMIIBiAKCAYEA87DRNJYJMp2WusP66DCW
9K3PZYqkRlNc/0IJ32oY1kfYC6yIz3k9rFYFC+fI4rBoYvWOIBpOZbFbrZ4SAadJ
mx10oGcUm7OFNA4ELgC2ijHVloKyYr9Ul6DMTnvYIWxSki3f/Jn+boPki5djqzON
AzV/BI2pCwEjUXeUCVg/jnb925Wxs5ThXe27jwku5pMR+yy+YPkt5xK2RMcYHr9N
1oZKQpfcCrIjhZTtmgDNJbdCMxAZ7M/8lVOvDNtWQoxQkvOGK7w/udyr+39iglMX
7xKXsTgOW7CM+zu0s6gRM85R7TnxthMLwk+k6LqcxsnyljNkfmN1V79fFNQPG2iS
yj3OYi8/lPGcawSNEtLLPR9LJNe7HPyap7NZ+QjEjHnKlLmoeU+nCktrqmEl6k0L
Oh3P60cIXNvOS5p1pwTosPW1GzNfDoHSD4FKuBT7rjhOgCF4L+T7YDgvtPetpDVI
ZnOsbz5hk7TYk1lL39nxcuY5op9PAuRg8WX6HrFeiVrrAgEDozgwNjAOBgNVHQ8B
Af8EBAMCBaAwEwYDVR0lBAwwCgYIKwYBBQUHAwIwDwYDVR0RBAgwBoIEcm9vdDAN
BgkqhkiG9w0BAQsFAAOCAYEAEq2cfLdRHwIP/MNMVvL5Dq7F0cfUlybG9tkxwUAU
/BoXf5pvEXlUJKqrhOsm3nwm6azOu9T6XxWWJUFG7r283Smmc4K9Z3fl4zHUsqmp
+u/hXsXEYQDjdIXzyZfCRVC0w5b+frT5FjsbbpNW9/5Ej5xI8ablHQYd75LiFY6Q
6PTRU/VQ4J17sjJ3EXVq1qs3e67mLLCalX7nzLvtSrLbDGggI5Cd1oddQXeix0EL
sl94pSdLxmhlF67gpsJEwxaecZKFyd0NkAniXFRZRm+wQZ0s03dzoz3PzfN9xlPa
yBJ9e6Btx79qD/FIU7UZsvyDPe0tp589aD8ImyJUZXtNZl9mFwesET4ozl/0BLwa
RiElYCUe+pbiOvxq3X93DyP8IfasXjJB5qPFo/mbA9tJ0c1iHl3vAnjoGUovlFKn
R+qPFSQtvVoet+uJgAVMHa8KihIui32SotgMChu7uFYkj+xHqz2MuW4/3ZeANYLt
zR2Fvue17+4Ez2yn34GEOqRH
-----END CERTIFICATE-----
