Certificate:
    Data:
        Version: 3 (0x2)
        Serial Number: 2 (0x2)
        Signature Algorithm: sha256WithRSAEncryption
        Issuer: O=Sample, CN=Sample CA
        Validity
            Not Before: Feb 24 03:07:06 2023 GMT
            Not After : Feb 24 03:07:06 2024 GMT
        Subject: O=Sample, CN=<username_1>
        Subject Public Key Info:
            Public Key Algorithm: rsaEncryption
                RSA Public-Key: (3072 bit)
                Modulus:
                    00:db:6b:bd:d2:4b:0b:50:40:e8:24:5e:f7:e4:52:
                    c1:0a:0d:f8:34:4d:6b:e1:53:0a:b1:b2:00:62:63:
                    46:b9:57:96:e3:e3:50:96:f4:eb:a2:61:a9:b3:12:
                    39:d7:81:9f:aa:e6:2d:83:ac:0b:78:97:35:34:e1:
                    dc:d5:b5:1d:87:ba:1f:9c:a9:3c:c1:5c:24:88:eb:
                    4d:39:48:a2:30:7c:c5:bd:09:dc:1d:71:ae:5e:3b:
                    0a:67:11:fa:d1:ab:81:16:03:76:fc:b9:0b:f1:ef:
                    69:48:ef:3e:61:03:9d:52:fb:52:c9:58:21:f1:87:
                    c1:72:0f:54:cf:bd:45:af:cf:c8:61:13:e7:70:c4:
                    51:5f:b0:73:c0:84:68:77:3c:3e:c6:da:31:16:2e:
                    14:22:1f:d9:97:96:16:ed:e5:8a:c2:de:40:14:36:
                    21:bd:10:31:00:48:28:9c:0e:80:2d:58:43:86:45:
                    3a:ef:41:0b:9d:35:e0:46:44:4e:41:29:14:ad:5f:
                    10:ed:bd:cd:71:4a:62:18:02:4b:48:38:f1:25:25:
                    f0:31:0c:b6:e3:6d:27:52:a3:8f:02:41:cd:af:22:
                    8f:b7:75:f2:9b:a1:03:e6:86:2a:26:69:04:77:ef:
                    7a:4f:44:8b:1d:6b:e2:7d:4d:7f:71:02:a9:f9:b6:
                    4a:d6:c1:7c:3b:11:4c:ca:f5:06:43:e2:99:7f:f8:
                    80:d2:e0:c6:b1:c8:ba:22:7a:d4:6d:05:38:6e:c0:
                    e7:62:34:35:0d:9e:dc:f5:1c:d5:58:52:18:11:d2:
                    4a:1f:af:06:a3:76:10:95:24:2c:c6:6e:f2:f3:88:
                    e0:0f:21:31:6a:77:38:43:8f:f8:0c:db:fc:35:bf:
                    7f:5e:30:ba:33:02:55:46:e2:c5:0c:11:59:92:ff:
                    cc:30:31:c8:a4:aa:e4:ee:d3:83:51:95:c7:44:7a:
                    7d:af:fa:7f:82:c8:47:3f:0a:f4:96:87:55:dd:2b:
                    79:d3:0c:3a:a8:7a:97:cb:99:71
                Exponent: 3 (0x3)
        X509v3 extensions:
            X509v3 Key Usage: critical
                Digital Signature, Key Encipherment
            X509v3 Extended Key Usage: 
                TLS Web Client Authentication
            X509v3 Subject Alternative Name: 
                DNS:root
    Signature Algorithm: sha256WithRSAEncryption
         04:d5:20:2c:ba:fc:dc:c0:c2:d2:72:99:6b:fa:36:17:b8:ab:
         ec:17:ae:9a:a2:a9:59:b8:a6:ab:52:b4:e4:31:16:8e:ab:57:
         45:cf:89:5a:f0:30:62:23:90:d1:7e:7b:65:c0:59:af:7e:ed:
         1f:84:3a:88:50:36:3d:cc:9c:5b:d1:b3:a8:6f:05:03:9b:ad:
         63:34:37:b0:37:9d:70:28:bd:f2:25:d8:57:d4:01:26:1e:df:
         fb:1c:8d:a1:ef:38:66:b9:aa:f2:0b:35:62:88:95:e9:72:91:
         c6:cd:7c:ba:e1:04:21:cd:80:49:95:e9:78:49:af:ab:8e:28:
         b3:8b:d2:d8:da:9e:bf:c6:a7:16:00:ae:0d:92:74:e5:a2:95:
         c9:20:e9:d3:dc:ed:2d:7e:19:a1:7d:a9:f9:b3:57:e2:28:97:
         ed:81:10:f1:fd:aa:90:72:96:1d:21:1e:8d:bf:36:4b:65:07:
         e8:70:74:43:57:26:db:65:6d:9e:38:a3:a0:c2:4f:96:b1:4c:
         a5:0d:5c:d9:5f:c2:97:56:5c:1d:41:ec:c1:34:14:45:ca:74:
         5d:0a:36:0f:84:13:3e:16:e9:b0:13:a1:c1:ec:ab:76:33:87:
         43:fc:ab:2c:05:ec:4e:40:00:9a:4e:3c:c2:3c:bf:ac:d1:be:
         5d:b0:2f:8d:fc:f3:b9:d3:8e:d9:b7:08:71:9c:eb:67:ea:d5:
         7e:1f:5c:be:c1:c5:97:0d:86:f6:89:7f:73:bc:a5:a0:f2:a9:
         7c:75:ad:49:d6:b9:a9:2a:b4:80:a9:a2:7a:c9:87:59:3d:f5:
         d9:99:d0:ee:a0:d4:64:a9:71:db:72:e7:32:fc:d2:0d:09:76:
         aa:cb:45:76:e1:07:dc:39:47:98:72:f3:a6:83:1b:36:1d:d6:
         60:9f:50:8b:98:33:6b:4b:cf:3b:22:11:87:cb:8a:a2:ac:99:
         49:d6:52:2e:ac:dd:ea:f4:2c:00:9d:0d:5c:d6:c8:5a:d6:ce:
         a9:1a:5d:16:c1:c9
-----BEGIN CERTIFICATE-----
MIID/jCCAmagAwIBAgIBAjANBgkqhkiG9w0BAQsFADAlMQ8wDQYDVQQKDAZTYW1w
bGUxEjAQBgNVBAMMCVNhbXBsZSBDQTAeFw0yMzAyMjQwMzA3MDZaFw0yNDAyMjQw
MzA3MDZaMCgxDzANBgNVBAoMBlNhbXBsZTEVMBMGA1UEAwwMPHVzZXJuYW1lXzE+
MIIBoDANBgkqhkiG9w0BAQEFAAOCAY0AMIIBiAKCAYEA22u90ksLUEDoJF735FLB
Cg34NE1r4VMKsbIAYmNGuVeW4+NQlvTromGpsxI514GfquYtg6wLeJc1NOHc1bUd
h7ofnKk8wVwkiOtNOUiiMHzFvQncHXGuXjsKZxH60auBFgN2/LkL8e9pSO8+YQOd
UvtSyVgh8YfBcg9Uz71Fr8/IYRPncMRRX7BzwIRodzw+xtoxFi4UIh/Zl5YW7eWK
wt5AFDYhvRAxAEgonA6ALVhDhkU670ELnTXgRkROQSkUrV8Q7b3NcUpiGAJLSDjx
JSXwMQy2420nUqOPAkHNryKPt3Xym6ED5oYqJmkEd+96T0SLHWvifU1/cQKp+bZK
1sF8OxFMyvUGQ+KZf/iA0uDGsci6InrUbQU4bsDnYjQ1DZ7c9RzVWFIYEdJKH68G
o3YQlSQsxm7y84jgDyExanc4Q4/4DNv8Nb9/XjC6MwJVRuLFDBFZkv/MMDHIpKrk
7tODUZXHRHp9r/p/gshHPwr0lodV3St50ww6qHqXy5lxAgEDozgwNjAOBgNVHQ8B
Af8EBAMCBaAwEwYDVR0lBAwwCgYIKwYBBQUHAwIwDwYDVR0RBAgwBoIEcm9vdDAN
BgkqhkiG9w0BAQsFAAOCAYEABNUgLLr83MDC0nKZa/o2F7ir7BeumqKpWbimq1K0
5DEWjqtXRc+JWvAwYiOQ0X57ZcBZr37tH4Q6iFA2PcycW9GzqG8FA5utYzQ3sDed
cCi98iXYV9QBJh7f+xyNoe84Zrmq8gs1YoiV6XKRxs18uuEEIc2ASZXpeEmvq44o
s4vS2Nqev8anFgCuDZJ05aKVySDp09ztLX4ZoX2p+bNX4iiX7YEQ8f2qkHKWHSEe
jb82S2UH6HB0Q1cm22VtnjijoMJPlrFMpQ1c2V/Cl1ZcHUHswTQURcp0XQo2D4QT
PhbpsBOhweyrdjOHQ/yrLAXsTkAAmk48wjy/rNG+XbAvjfzzudOO2bcIcZzrZ+rV
fh9cvsHFlw2G9ol/c7yloPKpfHWtSda5qSq0gKmiesmHWT312ZnQ7qDUZKlx23Ln
MvzSDQl2qstFduEH3DlHmHLzpoMbNh3WYJ9Qi5gza0vPOyIRh8uKoqyZSdZSLqzd
6vQsAJ0NXNbIWtbOqRpdFsHJ
-----END CERTIFICATE-----
